; ModuleID = '19/1295.c'
source_filename = "19/1295.c"
target datalayout = "e-m:e-p270:32:32-p271:32:32-p272:64:64-i64:64-f80:128-n8:16:32:64-S128"
target triple = "x86_64-pc-linux-gnu"

@.str = private unnamed_addr constant [3 x i8] c"%s\00", align 1
@.str.1 = private unnamed_addr constant [5 x i8] c"%s%s\00", align 1
@.str.2 = private unnamed_addr constant [1 x i8] zeroinitializer, align 1
@.str.3 = private unnamed_addr constant [2 x i8] c" \00", align 1

; Function Attrs: noinline nounwind uwtable
define dso_local void @main() #0 {
  %1 = alloca i32, align 4
  %2 = alloca i32, align 4
  %3 = alloca [100 x i8*], align 16
  %4 = alloca i8*, align 8
  %5 = alloca i8*, align 8
  store i32 0, i32* %1, align 4
  %6 = call noalias i8* @malloc(i64 30) #4
  %7 = getelementptr inbounds [100 x i8*], [100 x i8*]* %3, i64 0, i64 0
  store i8* %6, i8** %7, align 16
  br label %8

8:                                                ; preds = %15, %0
  %9 = load i32, i32* %1, align 4
  %10 = sext i32 %9 to i64
  %11 = getelementptr inbounds [100 x i8*], [100 x i8*]* %3, i64 0, i64 %10
  %12 = load i8*, i8** %11, align 8
  %13 = call i32 (i8*, ...) @__isoc99_scanf(i8* getelementptr inbounds ([3 x i8], [3 x i8]* @.str, i64 0, i64 0), i8* %12)
  %14 = icmp ne i32 %13, -1
  br i1 %14, label %15, label %23

15:                                               ; preds = %8
  %16 = call noalias i8* @malloc(i64 30) #4
  %17 = load i32, i32* %1, align 4
  %18 = add nsw i32 %17, 1
  %19 = sext i32 %18 to i64
  %20 = getelementptr inbounds [100 x i8*], [100 x i8*]* %3, i64 0, i64 %19
  store i8* %16, i8** %20, align 8
  %21 = load i32, i32* %1, align 4
  %22 = add nsw i32 %21, 1
  store i32 %22, i32* %1, align 4
  br label %8

23:                                               ; preds = %8
  %24 = load i32, i32* %1, align 4
  %25 = add nsw i32 %24, -1
  store i32 %25, i32* %1, align 4
  %26 = call noalias i8* @malloc(i64 10000) #4
  store i8* %26, i8** %4, align 8
  %27 = call noalias i8* @malloc(i64 10000) #4
  store i8* %27, i8** %5, align 8
  %28 = load i32, i32* %1, align 4
  %29 = sext i32 %28 to i64
  %30 = getelementptr inbounds [100 x i8*], [100 x i8*]* %3, i64 0, i64 %29
  %31 = load i8*, i8** %30, align 8
  store i8* %31, i8** %5, align 8
  %32 = load i32, i32* %1, align 4
  %33 = sub nsw i32 %32, 1
  %34 = sext i32 %33 to i64
  %35 = getelementptr inbounds [100 x i8*], [100 x i8*]* %3, i64 0, i64 %34
  %36 = load i8*, i8** %35, align 8
  store i8* %36, i8** %4, align 8
  store i32 0, i32* %2, align 4
  br label %37

37:                                               ; preds = %58, %23
  %38 = load i32, i32* %2, align 4
  %39 = load i32, i32* %1, align 4
  %40 = sub nsw i32 %39, 1
  %41 = icmp slt i32 %38, %40
  br i1 %41, label %42, label %61

42:                                               ; preds = %37
  %43 = load i32, i32* %2, align 4
  %44 = sext i32 %43 to i64
  %45 = getelementptr inbounds [100 x i8*], [100 x i8*]* %3, i64 0, i64 %44
  %46 = load i8*, i8** %45, align 8
  %47 = load i8*, i8** %4, align 8
  %48 = call i32 @strcmp(i8* %46, i8* %47) #5
  %49 = icmp eq i32 %48, 0
  br i1 %49, label %50, label %57

50:                                               ; preds = %42
  %51 = load i32, i32* %2, align 4
  %52 = sext i32 %51 to i64
  %53 = getelementptr inbounds [100 x i8*], [100 x i8*]* %3, i64 0, i64 %52
  %54 = load i8*, i8** %53, align 8
  %55 = load i8*, i8** %5, align 8
  %56 = call i8* @strcpy(i8* %54, i8* %55) #4
  br label %57

57:                                               ; preds = %50, %42
  br label %58

58:                                               ; preds = %57
  %59 = load i32, i32* %2, align 4
  %60 = add nsw i32 %59, 1
  store i32 %60, i32* %2, align 4
  br label %37

61:                                               ; preds = %37
  store i32 0, i32* %2, align 4
  br label %62

62:                                               ; preds = %79, %61
  %63 = load i32, i32* %2, align 4
  %64 = load i32, i32* %1, align 4
  %65 = sub nsw i32 %64, 1
  %66 = icmp slt i32 %63, %65
  br i1 %66, label %67, label %82

67:                                               ; preds = %62
  %68 = load i32, i32* %2, align 4
  %69 = sext i32 %68 to i64
  %70 = getelementptr inbounds [100 x i8*], [100 x i8*]* %3, i64 0, i64 %69
  %71 = load i8*, i8** %70, align 8
  %72 = load i32, i32* %2, align 4
  %73 = load i32, i32* %1, align 4
  %74 = sub nsw i32 %73, 2
  %75 = icmp eq i32 %72, %74
  %76 = zext i1 %75 to i64
  %77 = select i1 %75, i8* getelementptr inbounds ([1 x i8], [1 x i8]* @.str.2, i64 0, i64 0), i8* getelementptr inbounds ([2 x i8], [2 x i8]* @.str.3, i64 0, i64 0)
  %78 = call i32 (i8*, ...) @printf(i8* getelementptr inbounds ([5 x i8], [5 x i8]* @.str.1, i64 0, i64 0), i8* %71, i8* %77)
  br label %79

79:                                               ; preds = %67
  %80 = load i32, i32* %2, align 4
  %81 = add nsw i32 %80, 1
  store i32 %81, i32* %2, align 4
  br label %62

82:                                               ; preds = %62
  ret void
}

; Function Attrs: nounwind
declare dso_local noalias i8* @malloc(i64) #1

declare dso_local i32 @__isoc99_scanf(i8*, ...) #2

; Function Attrs: nounwind readonly
declare dso_local i32 @strcmp(i8*, i8*) #3

; Function Attrs: nounwind
declare dso_local i8* @strcpy(i8*, i8*) #1

declare dso_local i32 @printf(i8*, ...) #2


!llvm.module.flags = !{!0}
!llvm.ident = !{!1}

!0 = !{i32 1, !"wchar_size", i32 4}
!1 = !{!"clang version 10.0.0-4ubuntu1 "}
